target datalayout = "e-m:e-p270:32:32-p271:32:32-p272:64:64-i64:64-i128:128-f80:128-n8:16:32:64-S128"
target triple = "x86_64-pc-linux-gnu"

%struct.WarpedMotionParams = type { [8 x i32], i16, i16, i16, i16, i8, i8 }
%struct.AV1Common = type { %struct.CurrentFrame, %struct.aom_internal_error_info, i32, i32, i32, i32, i32, i32, i8, i8, [33 x i32], i32, ptr, ptr, [8 x i32], %struct.scale_factors, [8 x %struct.scale_factors], [8 x ptr], i32, i32, i32, %struct.FeatureFlags, %struct.CommonModeInfoParams, %struct.CommonQuantParams, %struct.segmentation, ptr, [8 x i8], %struct.loop_filter_info_n, %struct.loopfilter, [3 x %struct.RestorationInfo], ptr, ptr, %struct.yv12_buffer_config, %struct.CdefInfo, %struct.aom_film_grain_t, %struct.DeltaQInfo, [8 x %struct.WarpedMotionParams], %struct.SequenceHeader, ptr, ptr, %struct.CommonTileParams, ptr, %struct.CommonContexts, i32, [8 x i32], ptr, i32, [8 x i32], [8 x i8], i32, i32, i32, i32 }
%struct.CurrentFrame = type { i8, i8, i32, i32, i32, %struct.SkipModeInfo, i32, i32 }
%struct.SkipModeInfo = type { i32, i32, i32, i32 }
%struct.aom_internal_error_info = type { i32, i32, [200 x i8], i32, [1 x %struct.__jmp_buf_tag] }
%struct.__jmp_buf_tag = type { [8 x i64], i32, %struct.__sigset_t }
%struct.__sigset_t = type { [16 x i64] }
%struct.scale_factors = type { i32, i32, i32, i32, ptr, ptr }
%struct.FeatureFlags = type { i8, i8, i8, i8, i8, i8, i8, i8, i8, i8, i8, i8, i8, i8, i32, i32, i8 }
%struct.CommonModeInfoParams = type { i32, i32, i32, i32, i32, ptr, i32, i32, i8, ptr, i32, i32, ptr, ptr, ptr, ptr }
%struct.CommonQuantParams = type { i32, i32, i32, i32, i32, i32, [8 x [2 x i16]], [8 x [2 x i16]], [8 x [2 x i16]], [16 x [3 x [19 x ptr]]], [16 x [3 x [19 x ptr]]], [8 x [19 x ptr]], [8 x [19 x ptr]], [8 x [19 x ptr]], i8, i32, i32, i32 }
%struct.segmentation = type { i8, i8, i8, i8, [8 x [8 x i16]], [8 x i32], i32, i8 }
%struct.loop_filter_info_n = type { [64 x %struct.loop_filter_thresh], [3 x [8 x [2 x [8 x [2 x i8]]]]] }
%struct.loop_filter_thresh = type { [16 x i8], [16 x i8], [16 x i8] }
%struct.loopfilter = type { [2 x i32], i32, i32, i32, i8, i8, [8 x i8], [2 x i8], i32 }
%struct.RestorationInfo = type { i32, i32, i32, i32, i32, ptr, %struct.RestorationStripeBoundaries, i32 }
%struct.RestorationStripeBoundaries = type { ptr, ptr, i32, i32 }
%struct.CdefInfo = type { i32, i32, [16 x i32], [16 x i32], i32 }
%struct.aom_film_grain_t = type { i32, i32, [14 x [2 x i32]], i32, [10 x [2 x i32]], i32, [10 x [2 x i32]], i32, i32, i32, [24 x i32], [25 x i32], [25 x i32], i32, i32, i32, i32, i32, i32, i32, i32, i32, i32, i32, i32, i16 }
%struct.DeltaQInfo = type { i32, i32, i32, i32, i32 }
%struct.SequenceHeader = type { i32, i32, i32, i32, i8, i32, i32, i8, i32, i32, %struct.OrderHintInfo, i8, i8, i8, i8, i8, i8, i8, i8, i8, i8, i8, i8, i8, i8, i32, i8, i8, i32, i32, i32, i32, i32, i32, i32, i8, i8, i32, [32 x i32], i32, %struct.aom_timing, i8, %struct.aom_dec_model_info, i8, [32 x i8], [32 x i8], [33 x %struct.aom_dec_model_op_parameters] }
%struct.OrderHintInfo = type { i32, i32, i32, i32 }
%struct.aom_timing = type { i32, i32, i32, i32 }
%struct.aom_dec_model_info = type { i32, i32, i32, i32 }
%struct.aom_dec_model_op_parameters = type { i32, i64, i64, i32, i32, i32, i32, i32 }
%struct.CommonTileParams = type { i32, i32, i32, i32, i32, i32, i32, i32, i32, i32, i32, i32, i32, i32, i32, [65 x i32], [65 x i32], i32, i32 }
%struct.CommonContexts = type { ptr, [3 x ptr], ptr, i32, i32, i32 }
%struct.yv12_buffer_config = type { %union.anon, %union.anon.0, %union.anon.2, %union.anon.4, %union.anon.6, %union.anon.8, i32, [3 x ptr], ptr, i32, ptr, i64, i32, i64, i32, i32, i32, i32, i32, i32, i8, i32, i32, i32, i32, i32, i32, ptr }
%union.anon = type { %struct.anon }
%struct.anon = type { i32, i32 }
%union.anon.0 = type { %struct.anon.1 }
%struct.anon.1 = type { i32, i32 }
%union.anon.2 = type { %struct.anon.3 }
%struct.anon.3 = type { i32, i32 }
%union.anon.4 = type { %struct.anon.5 }
%struct.anon.5 = type { i32, i32 }
%union.anon.6 = type { %struct.anon.7 }
%struct.anon.7 = type { i32, i32 }
%union.anon.8 = type { %struct.anon.9 }
%struct.anon.9 = type { ptr, ptr, ptr }
%union.pthread_mutex_t = type { %struct.__pthread_mutex_s }
%struct.__pthread_mutex_s = type { i32, i32, i32, i32, i32, i16, i16, %struct.__pthread_internal_list }
%struct.__pthread_internal_list = type { ptr, ptr }
%struct.RefCntBuffer = type { i32, i32, [7 x i32], i32, [7 x i32], ptr, ptr, %struct.segmentation, i32, i32, i32, i32, [8 x %struct.WarpedMotionParams], i32, i8, %struct.aom_film_grain_t, %struct.aom_codec_frame_buffer, %struct.yv12_buffer_config, i8, [4 x i32], [8 x i8], [2 x i8], %struct.frame_contexts }
%struct.aom_codec_frame_buffer = type { ptr, i64, ptr }
%struct.frame_contexts = type { [5 x [13 x [3 x i16]]], [5 x [2 x [9 x [3 x i16]]]], [2 x [3 x [3 x i16]]], [2 x [2 x [6 x i16]]], [2 x [2 x [7 x i16]]], [2 x [2 x [8 x i16]]], [2 x [2 x [9 x i16]]], [2 x [2 x [10 x i16]]], [2 x [2 x [11 x i16]]], [2 x [2 x [12 x i16]]], [5 x [2 x [4 x [4 x i16]]]], [5 x [2 x [42 x [5 x i16]]]], [5 x [2 x [21 x [5 x i16]]]], [6 x [3 x i16]], [2 x [3 x i16]], [6 x [3 x i16]], [3 x [3 x i16]], [8 x [9 x i16]], [22 x [3 x i16]], [22 x [17 x i16]], [4 x [3 x i16]], [22 x [3 x i16]], [4 x [5 x i16]], [22 x [4 x i16]], [22 x [3 x i16]], [7 x [8 x i16]], [7 x [8 x i16]], [7 x [5 x [9 x i16]]], [7 x [5 x [9 x i16]]], [7 x [3 x [3 x i16]]], [2 x [3 x i16]], [5 x [3 x i16]], [3 x [6 x [3 x i16]]], [5 x [3 x i16]], [3 x [3 x [3 x i16]]], [3 x [3 x [3 x i16]]], [3 x [2 x [3 x i16]]], [21 x [3 x i16]], [6 x [3 x i16]], [6 x [3 x i16]], [3 x [3 x i16]], [3 x [3 x i16]], [4 x [3 x i16]], %struct.nmv_context, %struct.nmv_context, [3 x i16], %struct.segmentation_probs, [22 x [3 x i16]], [6 x i16], [4 x i16], [3 x i16], [3 x i16], [4 x [14 x i16]], [2 x [13 x [15 x i16]]], [20 x [11 x i16]], [16 x [4 x i16]], [5 x [5 x [14 x i16]]], [8 x [8 x i16]], [4 x [3 x [4 x i16]]], [5 x i16], [4 x [5 x i16]], [5 x i16], [3 x [4 x [13 x [17 x i16]]]], [4 x [4 x [17 x i16]]], [9 x i16], [6 x [17 x i16]], i32 }
%struct.nmv_context = type { [5 x i16], [2 x %struct.nmv_component] }
%struct.nmv_component = type { [12 x i16], [2 x [5 x i16]], [5 x i16], [3 x i16], [3 x i16], [3 x i16], [3 x i16], [10 x [3 x i16]] }
%struct.segmentation_probs = type { [9 x i16], [3 x [3 x i16]], [3 x [9 x i16]] }
%struct.BufferPool = type { %union.pthread_mutex_t, ptr, ptr, ptr, [16 x %struct.RefCntBuffer], %struct.InternalFrameBufferList }
%struct.InternalFrameBufferList = type { i32, ptr }

; Function Attrs: nounwind uwtable
define internal void @decrease_ref_count(ptr noundef %0, ptr noundef %1) #0 {
  %3 = alloca ptr, align 8
  %4 = alloca ptr, align 8
  store ptr %0, ptr %3, align 8
  store ptr %1, ptr %4, align 8
  %5 = load ptr, ptr %3, align 8
  %6 = icmp ne ptr %5, null
  br i1 %6, label %7, label %42

7:                                                ; preds = %2
  %8 = load ptr, ptr %3, align 8
  %9 = getelementptr inbounds nuw %struct.RefCntBuffer, ptr %8, i32 0, i32 0
  %10 = load i32, ptr %9, align 8
  %11 = add nsw i32 %10, -1
  store i32 %11, ptr %9, align 8
  %12 = load ptr, ptr %3, align 8
  %13 = getelementptr inbounds nuw %struct.RefCntBuffer, ptr %12, i32 0, i32 0
  %14 = load i32, ptr %13, align 8
  %15 = icmp eq i32 %14, 0
  br i1 %15, label %16, label %41

16:                                               ; preds = %7
  %17 = load ptr, ptr %3, align 8
  %18 = getelementptr inbounds nuw %struct.RefCntBuffer, ptr %17, i32 0, i32 16
  %19 = getelementptr inbounds nuw %struct.aom_codec_frame_buffer, ptr %18, i32 0, i32 0
  %20 = load ptr, ptr %19, align 8
  %21 = icmp ne ptr %20, null
  br i1 %21, label %22, label %41

22:                                               ; preds = %16
  %23 = load ptr, ptr %4, align 8
  %24 = getelementptr inbounds nuw %struct.BufferPool, ptr %23, i32 0, i32 3
  %25 = load ptr, ptr %24, align 8
  %26 = load ptr, ptr %4, align 8
  %27 = getelementptr inbounds nuw %struct.BufferPool, ptr %26, i32 0, i32 1
  %28 = load ptr, ptr %27, align 8
  %29 = load ptr, ptr %3, align 8
  %30 = getelementptr inbounds nuw %struct.RefCntBuffer, ptr %29, i32 0, i32 16
  %31 = call i32 %25(ptr noundef %28, ptr noundef %30)
  %32 = load ptr, ptr %3, align 8
  %33 = getelementptr inbounds nuw %struct.RefCntBuffer, ptr %32, i32 0, i32 16
  %34 = getelementptr inbounds nuw %struct.aom_codec_frame_buffer, ptr %33, i32 0, i32 0
  store ptr null, ptr %34, align 8
  %35 = load ptr, ptr %3, align 8
  %36 = getelementptr inbounds nuw %struct.RefCntBuffer, ptr %35, i32 0, i32 16
  %37 = getelementptr inbounds nuw %struct.aom_codec_frame_buffer, ptr %36, i32 0, i32 1
  store i64 0, ptr %37, align 8
  %38 = load ptr, ptr %3, align 8
  %39 = getelementptr inbounds nuw %struct.RefCntBuffer, ptr %38, i32 0, i32 16
  %40 = getelementptr inbounds nuw %struct.aom_codec_frame_buffer, ptr %39, i32 0, i32 2
  store ptr null, ptr %40, align 8
  br label %41

41:                                               ; preds = %22, %16, %7
  br label %42

42:                                               ; preds = %41, %2
  ret void
}

; Function Attrs: nounwind uwtable
define internal void @unlock_buffer_pool(ptr noundef %0) #0 {
  %2 = alloca ptr, align 8
  store ptr %0, ptr %2, align 8
  %3 = load ptr, ptr %2, align 8
  %4 = getelementptr inbounds nuw %struct.BufferPool, ptr %3, i32 0, i32 0
  %5 = call i32 @pthread_mutex_unlock(ptr noundef %4) #7
  ret void
}

; Function Attrs: nounwind uwtable
define internal void @reset_ref_frame_map(ptr noundef %0) #0 {
  %2 = alloca ptr, align 8
  %3 = alloca ptr, align 8
  %4 = alloca i32, align 4
  store ptr %0, ptr %2, align 8
  %5 = load ptr, ptr %2, align 8
  %6 = getelementptr inbounds nuw %struct.AV1Common, ptr %5, i32 0, i32 41
  %7 = load ptr, ptr %6, align 16
  store ptr %7, ptr %3, align 8
  store i32 0, ptr %4, align 4
  br label %8

8:                                                ; preds = %24, %1
  %9 = load i32, ptr %4, align 4
  %10 = icmp slt i32 %9, 8
  br i1 %10, label %11, label %27

11:                                               ; preds = %8
  %12 = load ptr, ptr %2, align 8
  %13 = getelementptr inbounds nuw %struct.AV1Common, ptr %12, i32 0, i32 17
  %14 = load i32, ptr %4, align 4
  %15 = sext i32 %14 to i64
  %16 = getelementptr inbounds [8 x ptr], ptr %13, i64 0, i64 %15
  %17 = load ptr, ptr %16, align 8
  %18 = load ptr, ptr %3, align 8
  call void @decrease_ref_count(ptr noundef %17, ptr noundef %18)
  %19 = load ptr, ptr %2, align 8
  %20 = getelementptr inbounds nuw %struct.AV1Common, ptr %19, i32 0, i32 17
  %21 = load i32, ptr %4, align 4
  %22 = sext i32 %21 to i64
  %23 = getelementptr inbounds [8 x ptr], ptr %20, i64 0, i64 %22
  store ptr null, ptr %23, align 8
  br label %24

24:                                               ; preds = %11
  %25 = load i32, ptr %4, align 4
  %26 = add nsw i32 %25, 1
  store i32 %26, ptr %4, align 4
  br label %8, !llvm.loop !40

27:                                               ; preds = %8
  ret void
}

; Function Attrs: nounwind uwtable
define internal void @lock_buffer_pool(ptr noundef %0) #0 {
  %2 = alloca ptr, align 8
  store ptr %0, ptr %2, align 8
  %3 = load ptr, ptr %2, align 8
  %4 = getelementptr inbounds nuw %struct.BufferPool, ptr %3, i32 0, i32 0
  %5 = call i32 @pthread_mutex_lock(ptr noundef %4) #7
  ret void
}

; Function Attrs: nounwind uwtable
define internal void @reset_frame_buffers(ptr noundef %0) #0 {
  %2 = alloca ptr, align 8
  %3 = alloca ptr, align 8
  %4 = alloca i32, align 4
  store ptr %0, ptr %2, align 8
  %5 = load ptr, ptr %2, align 8
  %6 = getelementptr inbounds nuw %struct.AV1Common, ptr %5, i32 0, i32 41
  %7 = load ptr, ptr %6, align 16
  %8 = getelementptr inbounds nuw %struct.BufferPool, ptr %7, i32 0, i32 4
  %9 = getelementptr inbounds [16 x %struct.RefCntBuffer], ptr %8, i64 0, i64 0
  store ptr %9, ptr %3, align 8
  %10 = load ptr, ptr %2, align 8
  %11 = getelementptr inbounds nuw %struct.AV1Common, ptr %10, i32 0, i32 41
  %12 = load ptr, ptr %11, align 16
  call void @lock_buffer_pool(ptr noundef %12)
  %13 = load ptr, ptr %2, align 8
  call void @reset_ref_frame_map(ptr noundef %13)
  store i32 0, ptr %4, align 4
  br label %14

14:                                               ; preds = %46, %1
  %15 = load i32, ptr %4, align 4
  %16 = icmp slt i32 %15, 16
  br i1 %16, label %17, label %49

17:                                               ; preds = %14
  %18 = load ptr, ptr %3, align 8
  %19 = load i32, ptr %4, align 4
  %20 = sext i32 %19 to i64
  %21 = getelementptr inbounds %struct.RefCntBuffer, ptr %18, i64 %20
  %22 = getelementptr inbounds nuw %struct.RefCntBuffer, ptr %21, i32 0, i32 0
  %23 = load i32, ptr %22, align 8
  %24 = icmp sgt i32 %23, 0
  br i1 %24, label %25, label %35

25:                                               ; preds = %17
  %26 = load ptr, ptr %3, align 8
  %27 = load i32, ptr %4, align 4
  %28 = sext i32 %27 to i64
  %29 = getelementptr inbounds %struct.RefCntBuffer, ptr %26, i64 %28
  %30 = load ptr, ptr %2, align 8
  %31 = getelementptr inbounds nuw %struct.AV1Common, ptr %30, i32 0, i32 13
  %32 = load ptr, ptr %31, align 8
  %33 = icmp ne ptr %29, %32
  br i1 %33, label %34, label %35

34:                                               ; preds = %25
  br label %46

35:                                               ; preds = %25, %17
  %36 = load ptr, ptr %3, align 8
  %37 = load i32, ptr %4, align 4
  %38 = sext i32 %37 to i64
  %39 = getelementptr inbounds %struct.RefCntBuffer, ptr %36, i64 %38
  %40 = getelementptr inbounds nuw %struct.RefCntBuffer, ptr %39, i32 0, i32 1
  store i32 0, ptr %40, align 4
  %41 = load ptr, ptr %3, align 8
  %42 = load i32, ptr %4, align 4
  %43 = sext i32 %42 to i64
  %44 = getelementptr inbounds %struct.RefCntBuffer, ptr %41, i64 %43
  %45 = getelementptr inbounds nuw %struct.RefCntBuffer, ptr %44, i32 0, i32 2
  call void @llvm.memset.p0.i64(ptr align 8 %45, i8 0, i64 28, i1 false)
  br label %46

46:                                               ; preds = %35, %34
  %47 = load i32, ptr %4, align 4
  %48 = add nsw i32 %47, 1
  store i32 %48, ptr %4, align 4
  br label %14, !llvm.loop !38

49:                                               ; preds = %14
  %50 = load ptr, ptr %2, align 8
  %51 = getelementptr inbounds nuw %struct.AV1Common, ptr %50, i32 0, i32 41
  %52 = load ptr, ptr %51, align 16
  %53 = getelementptr inbounds nuw %struct.BufferPool, ptr %52, i32 0, i32 5
  call void @av1_zero_unused_internal_frame_buffers(ptr noundef %53)
  %54 = load ptr, ptr %2, align 8
  %55 = getelementptr inbounds nuw %struct.AV1Common, ptr %54, i32 0, i32 41
  %56 = load ptr, ptr %55, align 16
  call void @unlock_buffer_pool(ptr noundef %56)
  ret void
}