; Function Attrs: nounwind uwtable
define internal fastcc void @reset_frame_buffers(ptr noundef captures(none) %0) unnamed_addr #0 {
  %2 = getelementptr inbounds nuw i8, ptr %0, i64 27728
  %3 = load ptr, ptr %2, align 16
  %4 = tail call i32 @pthread_mutex_lock(ptr noundef %3) #16
  %5 = load ptr, ptr %2, align 16
  %6 = getelementptr inbounds nuw i8, ptr %0, i64 960
  %7 = getelementptr inbounds nuw i8, ptr %5, i64 56
  %8 = getelementptr inbounds nuw i8, ptr %5, i64 40
  br label %9

9:                                                ; preds = %decrease_ref_count.exit.i, %1
  %indvars.iv.i = phi i64 [ 0, %1 ], [ %indvars.iv.next.i, %decrease_ref_count.exit.i ]
  %10 = getelementptr inbounds nuw [8 x ptr], ptr %6, i64 0, i64 %indvars.iv.i
  %11 = load ptr, ptr %10, align 8
  %.not.i.i = icmp eq ptr %11, null
  br i1 %.not.i.i, label %decrease_ref_count.exit.i, label %12

12:                                               ; preds = %9
  %13 = load i32, ptr %11, align 8
  %14 = add nsw i32 %13, -1
  store i32 %14, ptr %11, align 8
  %15 = icmp eq i32 %14, 0
  br i1 %15, label %16, label %decrease_ref_count.exit.i

16:                                               ; preds = %12
  %17 = getelementptr inbounds nuw i8, ptr %11, i64 1288
  %18 = load ptr, ptr %17, align 8
  %.not10.i.i = icmp eq ptr %18, null
  br i1 %.not10.i.i, label %decrease_ref_count.exit.i, label %19

19:                                               ; preds = %16
  %20 = load ptr, ptr %7, align 8
  %21 = load ptr, ptr %8, align 8
  %22 = tail call i32 %20(ptr noundef %21, ptr noundef nonnull %17) #16
  tail call void @llvm.memset.p0.i64(ptr noundef nonnull align 8 dereferenceable(24) %17, i8 0, i64 24, i1 false)
  br label %decrease_ref_count.exit.i

decrease_ref_count.exit.i:                        ; preds = %19, %16, %12, %9
  store ptr null, ptr %10, align 8
  %indvars.iv.next.i = add nuw nsw i64 %indvars.iv.i, 1
  %exitcond.not.i = icmp eq i64 %indvars.iv.next.i, 8
  br i1 %exitcond.not.i, label %reset_ref_frame_map.exit.preheader, label %9, !llvm.loop !16

reset_ref_frame_map.exit.preheader:               ; preds = %decrease_ref_count.exit.i
  %23 = getelementptr inbounds nuw i8, ptr %3, i64 64
  %24 = getelementptr inbounds nuw i8, ptr %0, i64 632
  br label %25

25:                                               ; preds = %reset_ref_frame_map.exit.preheader, %reset_ref_frame_map.exit
  %indvars.iv = phi i64 [ 0, %reset_ref_frame_map.exit.preheader ], [ %indvars.iv.next, %reset_ref_frame_map.exit ]
  %26 = getelementptr inbounds nuw %struct.RefCntBuffer, ptr %23, i64 %indvars.iv
  %27 = load i32, ptr %26, align 8
  %28 = icmp sgt i32 %27, 0
  br i1 %28, label %29, label %31

29:                                               ; preds = %25
  %30 = load ptr, ptr %24, align 8
  %.not = icmp eq ptr %26, %30
  br i1 %.not, label %31, label %reset_ref_frame_map.exit

31:                                               ; preds = %29, %25
  %32 = getelementptr inbounds nuw i8, ptr %26, i64 4
  tail call void @llvm.memset.p0.i64(ptr noundef nonnull align 4 dereferenceable(32) %32, i8 0, i64 32, i1 false)
  br label %reset_ref_frame_map.exit

reset_ref_frame_map.exit:                         ; preds = %29, %31
  %indvars.iv.next = add nuw nsw i64 %indvars.iv, 1
  %exitcond.not = icmp eq i64 %indvars.iv.next, 16
  br i1 %exitcond.not, label %33, label %25, !llvm.loop !72

33:                                               ; preds = %reset_ref_frame_map.exit
  %34 = load ptr, ptr %2, align 16
  %35 = getelementptr inbounds nuw i8, ptr %34, i64 365120
  tail call void @av1_zero_unused_internal_frame_buffers(ptr noundef nonnull %35) #16
  %36 = load ptr, ptr %2, align 16
  %37 = tail call i32 @pthread_mutex_unlock(ptr noundef %36) #16
  ret void
}